; Function Attrs: nounwind sspstrong uwtable
define internal noundef i64 @rb_condvar_initialize(i64 noundef returned %0) #0 {
  %2 = load ptr, ptr @ruby_current_vm_ptr, align 8, !tbaa !147
  %3 = getelementptr inbounds nuw i8, ptr %2, i64 480
  %4 = load i64, ptr %3, align 8, !tbaa !193
  %5 = tail call ptr @rb_check_typeddata(i64 noundef %0, ptr noundef nonnull @cv_data_type) #17
  %6 = getelementptr inbounds nuw i8, ptr %5, i64 16
  %7 = load i64, ptr %6, align 8, !tbaa !467
  %.not.i = icmp eq i64 %7, %4
  br i1 %.not.i, label %condvar_ptr.exit, label %8

8:                                                ; preds = %1
  store i64 %4, ptr %6, align 8, !tbaa !467
  br label %condvar_ptr.exit

condvar_ptr.exit:                                 ; preds = %1, %8
  %9 = getelementptr inbounds nuw i8, ptr %5, i64 8
  store ptr %5, ptr %9, align 8, !tbaa !55
  store ptr %5, ptr %5, align 8, !tbaa !54
  ret i64 %0
}